; Function Attrs: mustprogress nofree norecurse nosync nounwind willreturn memory(none) uwtable
define range(i32 0, 2) i32 @EVUTIL_ISXDIGIT_(i8 noundef signext %0) local_unnamed_addr #19 {
  %2 = zext i8 %0 to i32
  %3 = lshr i32 %2, 5
  %4 = zext nneg i32 %3 to i64
  %5 = getelementptr inbounds nuw [8 x i32], ptr @EVUTIL_ISXDIGIT_TABLE, i64 0, i64 %4
  %6 = load i32, ptr %5, align 4
  %7 = and i32 %2, 31
  %8 = lshr i32 %6, %7
  %9 = and i32 %8, 1
  ret i32 %9
}